; Function Attrs: mustprogress uwtable
define void @_ZN2cv12GComputationC2ERKSt8functionIFS0_vEE(ptr noundef nonnull writeonly align 8 captures(none) dereferenceable(16) %0, ptr noundef nonnull align 8 dereferenceable(32) %1) unnamed_addr #3 align 2 personality ptr @__gxx_personality_v0 {
  %3 = alloca %"class.cv::GComputation", align 8
  call void @llvm.lifetime.start.p0(i64 16, ptr nonnull %3) #26
  %4 = getelementptr inbounds nuw i8, ptr %1, i64 16
  %5 = load ptr, ptr %4, align 8, !tbaa !3, !noalias !8
  %.not.i.i = icmp eq ptr %5, null
  br i1 %.not.i.i, label %6, label %_ZN2cv12GComputationD2Ev.exit

6:                                                ; preds = %2
  tail call void @_ZSt25__throw_bad_function_callv() #27, !noalias !8
  unreachable

_ZN2cv12GComputationD2Ev.exit:                    ; preds = %2
  %7 = getelementptr inbounds nuw i8, ptr %1, i64 24
  %8 = load ptr, ptr %7, align 8, !tbaa !11, !noalias !8
  call void %8(ptr dead_on_unwind nonnull writable sret(%"class.cv::GComputation") align 8 %3, ptr noundef nonnull align 8 dereferenceable(32) %1)
  %9 = load ptr, ptr %3, align 8, !tbaa !13
  store ptr %9, ptr %0, align 8, !tbaa !13
  %10 = getelementptr inbounds nuw i8, ptr %0, i64 8
  %11 = getelementptr inbounds nuw i8, ptr %3, i64 8
  %12 = load ptr, ptr %11, align 8, !tbaa !18
  store ptr %12, ptr %10, align 8, !tbaa !18
  call void @llvm.lifetime.end.p0(i64 16, ptr nonnull %3) #26
  ret void
}